target datalayout = "e-m:e-p270:32:32-p271:32:32-p272:64:64-i64:64-i128:128-f80:128-n8:16:32:64-S128"
target triple = "x86_64-pc-linux-gnu"

%struct.slice_buffer_s = type { ptr, ptr, i32, i32, i32, i32, ptr }

; Function Attrs: nounwind uwtable
define void @ff_snow_inner_add_yblock(ptr noundef %0, i32 noundef %1, ptr noundef %2, i32 noundef %3, i32 noundef %4, i32 noundef %5, i32 noundef %6, i32 noundef %7, ptr noundef %8, i32 noundef %9, ptr noundef %10) #0 {
  %12 = alloca ptr, align 8
  %13 = alloca i32, align 4
  %14 = alloca ptr, align 8
  %15 = alloca i32, align 4
  %16 = alloca i32, align 4
  %17 = alloca i32, align 4
  %18 = alloca i32, align 4
  %19 = alloca i32, align 4
  %20 = alloca ptr, align 8
  %21 = alloca i32, align 4
  %22 = alloca ptr, align 8
  %23 = alloca i32, align 4
  %24 = alloca i32, align 4
  %25 = alloca ptr, align 8
  %26 = alloca ptr, align 8
  %27 = alloca ptr, align 8
  %28 = alloca ptr, align 8
  %29 = alloca ptr, align 8
  %30 = alloca i32, align 4
  store ptr %0, ptr %12, align 8, !tbaa !4
  store i32 %1, ptr %13, align 4, !tbaa !9
  store ptr %2, ptr %14, align 8, !tbaa !11
  store i32 %3, ptr %15, align 4, !tbaa !9
  store i32 %4, ptr %16, align 4, !tbaa !9
  store i32 %5, ptr %17, align 4, !tbaa !9
  store i32 %6, ptr %18, align 4, !tbaa !9
  store i32 %7, ptr %19, align 4, !tbaa !9
  store ptr %8, ptr %20, align 8, !tbaa !14
  store i32 %9, ptr %21, align 4, !tbaa !9
  store ptr %10, ptr %22, align 8, !tbaa !4
  call void @llvm.lifetime.start.p0(i64 4, ptr %23) #6
  call void @llvm.lifetime.start.p0(i64 4, ptr %24) #6
  call void @llvm.lifetime.start.p0(i64 8, ptr %25) #6
  store i32 0, ptr %23, align 4, !tbaa !9
  br label %31

31:                                               ; preds = %226, %11
  %32 = load i32, ptr %23, align 4, !tbaa !9
  %33 = load i32, ptr %16, align 4, !tbaa !9
  %34 = icmp slt i32 %32, %33
  br i1 %34, label %35, label %229

35:                                               ; preds = %31
  call void @llvm.lifetime.start.p0(i64 8, ptr %26) #6
  %36 = load ptr, ptr %12, align 8, !tbaa !4
  %37 = load i32, ptr %23, align 4, !tbaa !9
  %38 = load i32, ptr %13, align 4, !tbaa !9
  %39 = mul nsw i32 %37, %38
  %40 = sext i32 %39 to i64
  %41 = getelementptr inbounds i8, ptr %36, i64 %40
  store ptr %41, ptr %26, align 8, !tbaa !4
  call void @llvm.lifetime.start.p0(i64 8, ptr %27) #6
  %42 = load ptr, ptr %26, align 8, !tbaa !4
  %43 = load i32, ptr %13, align 4, !tbaa !9
  %44 = ashr i32 %43, 1
  %45 = sext i32 %44 to i64
  %46 = getelementptr inbounds i8, ptr %42, i64 %45
  store ptr %46, ptr %27, align 8, !tbaa !4
  call void @llvm.lifetime.start.p0(i64 8, ptr %28) #6
  %47 = load ptr, ptr %26, align 8, !tbaa !4
  %48 = load i32, ptr %13, align 4, !tbaa !9
  %49 = load i32, ptr %13, align 4, !tbaa !9
  %50 = ashr i32 %49, 1
  %51 = mul nsw i32 %48, %50
  %52 = sext i32 %51 to i64
  %53 = getelementptr inbounds i8, ptr %47, i64 %52
  store ptr %53, ptr %28, align 8, !tbaa !4
  call void @llvm.lifetime.start.p0(i64 8, ptr %29) #6
  %54 = load ptr, ptr %28, align 8, !tbaa !4
  %55 = load i32, ptr %13, align 4, !tbaa !9
  %56 = ashr i32 %55, 1
  %57 = sext i32 %56 to i64
  %58 = getelementptr inbounds i8, ptr %54, i64 %57
  store ptr %58, ptr %29, align 8, !tbaa !4
  %59 = load ptr, ptr %20, align 8, !tbaa !14
  %60 = getelementptr inbounds nuw %struct.slice_buffer_s, ptr %59, i32 0, i32 0
  %61 = load ptr, ptr %60, align 8, !tbaa !16
  %62 = load i32, ptr %18, align 4, !tbaa !9
  %63 = load i32, ptr %23, align 4, !tbaa !9
  %64 = add nsw i32 %62, %63
  %65 = sext i32 %64 to i64
  %66 = getelementptr inbounds ptr, ptr %61, i64 %65
  %67 = load ptr, ptr %66, align 8, !tbaa !20
  %68 = icmp ne ptr %67, null
  br i1 %68, label %69, label %79

69:                                               ; preds = %35
  %70 = load ptr, ptr %20, align 8, !tbaa !14
  %71 = getelementptr inbounds nuw %struct.slice_buffer_s, ptr %70, i32 0, i32 0
  %72 = load ptr, ptr %71, align 8, !tbaa !16
  %73 = load i32, ptr %18, align 4, !tbaa !9
  %74 = load i32, ptr %23, align 4, !tbaa !9
  %75 = add nsw i32 %73, %74
  %76 = sext i32 %75 to i64
  %77 = getelementptr inbounds ptr, ptr %72, i64 %76
  %78 = load ptr, ptr %77, align 8, !tbaa !20
  br label %85

79:                                               ; preds = %35
  %80 = load ptr, ptr %20, align 8, !tbaa !14
  %81 = load i32, ptr %18, align 4, !tbaa !9
  %82 = load i32, ptr %23, align 4, !tbaa !9
  %83 = add nsw i32 %81, %82
  %84 = call ptr @ff_slice_buffer_load_line(ptr noundef %80, i32 noundef %83)
  br label %85

85:                                               ; preds = %79, %69
  %86 = phi ptr [ %78, %69 ], [ %84, %79 ]
  store ptr %86, ptr %25, align 8, !tbaa !20
  store i32 0, ptr %24, align 4, !tbaa !9
  br label %87

87:                                               ; preds = %222, %85
  %88 = load i32, ptr %24, align 4, !tbaa !9
  %89 = load i32, ptr %15, align 4, !tbaa !9
  %90 = icmp slt i32 %88, %89
  br i1 %90, label %91, label %225

91:                                               ; preds = %87
  call void @llvm.lifetime.start.p0(i64 4, ptr %30) #6
  %92 = load ptr, ptr %26, align 8, !tbaa !4
  %93 = load i32, ptr %24, align 4, !tbaa !9
  %94 = sext i32 %93 to i64
  %95 = getelementptr inbounds i8, ptr %92, i64 %94
  %96 = load i8, ptr %95, align 1, !tbaa !21
  %97 = zext i8 %96 to i32
  %98 = load ptr, ptr %14, align 8, !tbaa !11
  %99 = getelementptr inbounds ptr, ptr %98, i64 3
  %100 = load ptr, ptr %99, align 8, !tbaa !4
  %101 = load i32, ptr %24, align 4, !tbaa !9
  %102 = load i32, ptr %23, align 4, !tbaa !9
  %103 = load i32, ptr %19, align 4, !tbaa !9
  %104 = mul nsw i32 %102, %103
  %105 = add nsw i32 %101, %104
  %106 = sext i32 %105 to i64
  %107 = getelementptr inbounds i8, ptr %100, i64 %106
  %108 = load i8, ptr %107, align 1, !tbaa !21
  %109 = zext i8 %108 to i32
  %110 = mul nsw i32 %97, %109
  %111 = load ptr, ptr %27, align 8, !tbaa !4
  %112 = load i32, ptr %24, align 4, !tbaa !9
  %113 = sext i32 %112 to i64
  %114 = getelementptr inbounds i8, ptr %111, i64 %113
  %115 = load i8, ptr %114, align 1, !tbaa !21
  %116 = zext i8 %115 to i32
  %117 = load ptr, ptr %14, align 8, !tbaa !11
  %118 = getelementptr inbounds ptr, ptr %117, i64 2
  %119 = load ptr, ptr %118, align 8, !tbaa !4
  %120 = load i32, ptr %24, align 4, !tbaa !9
  %121 = load i32, ptr %23, align 4, !tbaa !9
  %122 = load i32, ptr %19, align 4, !tbaa !9
  %123 = mul nsw i32 %121, %122
  %124 = add nsw i32 %120, %123
  %125 = sext i32 %124 to i64
  %126 = getelementptr inbounds i8, ptr %119, i64 %125
  %127 = load i8, ptr %126, align 1, !tbaa !21
  %128 = zext i8 %127 to i32
  %129 = mul nsw i32 %116, %128
  %130 = add nsw i32 %110, %129
  %131 = load ptr, ptr %28, align 8, !tbaa !4
  %132 = load i32, ptr %24, align 4, !tbaa !9
  %133 = sext i32 %132 to i64
  %134 = getelementptr inbounds i8, ptr %131, i64 %133
  %135 = load i8, ptr %134, align 1, !tbaa !21
  %136 = zext i8 %135 to i32
  %137 = load ptr, ptr %14, align 8, !tbaa !11
  %138 = getelementptr inbounds ptr, ptr %137, i64 1
  %139 = load ptr, ptr %138, align 8, !tbaa !4
  %140 = load i32, ptr %24, align 4, !tbaa !9
  %141 = load i32, ptr %23, align 4, !tbaa !9
  %142 = load i32, ptr %19, align 4, !tbaa !9
  %143 = mul nsw i32 %141, %142
  %144 = add nsw i32 %140, %143
  %145 = sext i32 %144 to i64
  %146 = getelementptr inbounds i8, ptr %139, i64 %145
  %147 = load i8, ptr %146, align 1, !tbaa !21
  %148 = zext i8 %147 to i32
  %149 = mul nsw i32 %136, %148
  %150 = add nsw i32 %130, %149
  %151 = load ptr, ptr %29, align 8, !tbaa !4
  %152 = load i32, ptr %24, align 4, !tbaa !9
  %153 = sext i32 %152 to i64
  %154 = getelementptr inbounds i8, ptr %151, i64 %153
  %155 = load i8, ptr %154, align 1, !tbaa !21
  %156 = zext i8 %155 to i32
  %157 = load ptr, ptr %14, align 8, !tbaa !11
  %158 = getelementptr inbounds ptr, ptr %157, i64 0
  %159 = load ptr, ptr %158, align 8, !tbaa !4
  %160 = load i32, ptr %24, align 4, !tbaa !9
  %161 = load i32, ptr %23, align 4, !tbaa !9
  %162 = load i32, ptr %19, align 4, !tbaa !9
  %163 = mul nsw i32 %161, %162
  %164 = add nsw i32 %160, %163
  %165 = sext i32 %164 to i64
  %166 = getelementptr inbounds i8, ptr %159, i64 %165
  %167 = load i8, ptr %166, align 1, !tbaa !21
  %168 = zext i8 %167 to i32
  %169 = mul nsw i32 %156, %168
  %170 = add nsw i32 %150, %169
  store i32 %170, ptr %30, align 4, !tbaa !9
  %171 = load i32, ptr %30, align 4, !tbaa !9
  %172 = shl i32 %171, 0
  store i32 %172, ptr %30, align 4, !tbaa !9
  %173 = load i32, ptr %30, align 4, !tbaa !9
  %174 = ashr i32 %173, 4
  store i32 %174, ptr %30, align 4, !tbaa !9
  %175 = load i32, ptr %21, align 4, !tbaa !9
  %176 = icmp ne i32 %175, 0
  br i1 %176, label %177, label %209

177:                                              ; preds = %91
  %178 = load ptr, ptr %25, align 8, !tbaa !20
  %179 = load i32, ptr %24, align 4, !tbaa !9
  %180 = load i32, ptr %17, align 4, !tbaa !9
  %181 = add nsw i32 %179, %180
  %182 = sext i32 %181 to i64
  %183 = getelementptr inbounds i16, ptr %178, i64 %182
  %184 = load i16, ptr %183, align 2, !tbaa !22
  %185 = sext i16 %184 to i32
  %186 = load i32, ptr %30, align 4, !tbaa !9
  %187 = add nsw i32 %186, %185
  store i32 %187, ptr %30, align 4, !tbaa !9
  %188 = load i32, ptr %30, align 4, !tbaa !9
  %189 = add nsw i32 %188, 8
  %190 = ashr i32 %189, 4
  store i32 %190, ptr %30, align 4, !tbaa !9
  %191 = load i32, ptr %30, align 4, !tbaa !9
  %192 = and i32 %191, -256
  %193 = icmp ne i32 %192, 0
  br i1 %193, label %194, label %198

194:                                              ; preds = %177
  %195 = load i32, ptr %30, align 4, !tbaa !9
  %196 = ashr i32 %195, 31
  %197 = xor i32 %196, -1
  store i32 %197, ptr %30, align 4, !tbaa !9
  br label %198

198:                                              ; preds = %194, %177
  %199 = load i32, ptr %30, align 4, !tbaa !9
  %200 = trunc i32 %199 to i8
  %201 = load ptr, ptr %22, align 8, !tbaa !4
  %202 = load i32, ptr %24, align 4, !tbaa !9
  %203 = load i32, ptr %23, align 4, !tbaa !9
  %204 = load i32, ptr %19, align 4, !tbaa !9
  %205 = mul nsw i32 %203, %204
  %206 = add nsw i32 %202, %205
  %207 = sext i32 %206 to i64
  %208 = getelementptr inbounds i8, ptr %201, i64 %207
  store i8 %200, ptr %208, align 1, !tbaa !21
  br label %221

209:                                              ; preds = %91
  %210 = load i32, ptr %30, align 4, !tbaa !9
  %211 = load ptr, ptr %25, align 8, !tbaa !20
  %212 = load i32, ptr %24, align 4, !tbaa !9
  %213 = load i32, ptr %17, align 4, !tbaa !9
  %214 = add nsw i32 %212, %213
  %215 = sext i32 %214 to i64
  %216 = getelementptr inbounds i16, ptr %211, i64 %215
  %217 = load i16, ptr %216, align 2, !tbaa !22
  %218 = sext i16 %217 to i32
  %219 = sub nsw i32 %218, %210
  %220 = trunc i32 %219 to i16
  store i16 %220, ptr %216, align 2, !tbaa !22
  br label %221

221:                                              ; preds = %209, %198
  call void @llvm.lifetime.end.p0(i64 4, ptr %30) #6
  br label %222

222:                                              ; preds = %221
  %223 = load i32, ptr %24, align 4, !tbaa !9
  %224 = add nsw i32 %223, 1
  store i32 %224, ptr %24, align 4, !tbaa !9
  br label %87, !llvm.loop !24

225:                                              ; preds = %87
  call void @llvm.lifetime.end.p0(i64 8, ptr %29) #6
  call void @llvm.lifetime.end.p0(i64 8, ptr %28) #6
  call void @llvm.lifetime.end.p0(i64 8, ptr %27) #6
  call void @llvm.lifetime.end.p0(i64 8, ptr %26) #6
  br label %226

226:                                              ; preds = %225
  %227 = load i32, ptr %23, align 4, !tbaa !9
  %228 = add nsw i32 %227, 1
  store i32 %228, ptr %23, align 4, !tbaa !9
  br label %31, !llvm.loop !26

229:                                              ; preds = %31
  call void @llvm.lifetime.end.p0(i64 8, ptr %25) #6
  call void @llvm.lifetime.end.p0(i64 4, ptr %24) #6
  call void @llvm.lifetime.end.p0(i64 4, ptr %23) #6
  ret void
}