; Function Attrs: nounwind uwtable
define void @ff_snow_inner_add_yblock(ptr noundef readonly captures(none) %0, i32 noundef %1, ptr noundef readonly captures(none) %2, i32 noundef %3, i32 noundef %4, i32 noundef %5, i32 noundef %6, i32 noundef %7, ptr noundef %8, i32 noundef %9, ptr noundef writeonly captures(none) %10) local_unnamed_addr #0 {
  %12 = icmp sgt i32 %4, 0
  br i1 %12, label %.lr.ph75, label %._crit_edge76

.lr.ph75:                                         ; preds = %11
  %13 = ashr i32 %1, 1
  %14 = sext i32 %13 to i64
  %15 = mul nsw i32 %13, %1
  %16 = sext i32 %15 to i64
  %17 = icmp sgt i32 %3, 0
  %18 = getelementptr inbounds nuw i8, ptr %2, i64 24
  %19 = getelementptr inbounds nuw i8, ptr %2, i64 16
  %20 = getelementptr inbounds nuw i8, ptr %2, i64 8
  br i1 %17, label %.lr.ph75.split.us, label %.lr.ph75.split.preheader

.lr.ph75.split.preheader:                         ; preds = %.lr.ph75
  %21 = sext i32 %6 to i64
  %wide.trip.count = zext nneg i32 %4 to i64
  br label %.lr.ph75.split

.lr.ph75.split.us:                                ; preds = %.lr.ph75
  %.not70 = icmp eq i32 %9, 0
  %22 = sext i32 %5 to i64
  %23 = sext i32 %1 to i64
  %24 = sext i32 %6 to i64
  %25 = sext i32 %7 to i64
  %wide.trip.count101 = zext nneg i32 %4 to i64
  %wide.trip.count96 = zext nneg i32 %3 to i64
  br i1 %.not70, label %.lr.ph75.split.us.split.us, label %.lr.ph75.split.us.split

.lr.ph75.split.us.split.us:                       ; preds = %.lr.ph75.split.us, %._crit_edge.split.us.us.us
  %indvars.iv98 = phi i64 [ %indvars.iv.next99, %._crit_edge.split.us.us.us ], [ 0, %.lr.ph75.split.us ]
  %26 = mul nsw i64 %indvars.iv98, %23
  %27 = getelementptr inbounds i8, ptr %0, i64 %26
  %28 = getelementptr inbounds i8, ptr %27, i64 %14
  %29 = getelementptr inbounds i8, ptr %27, i64 %16
  %30 = getelementptr inbounds i8, ptr %29, i64 %14
  %31 = load ptr, ptr %8, align 8, !tbaa !4
  %32 = add nsw i64 %indvars.iv98, %24
  %33 = getelementptr inbounds ptr, ptr %31, i64 %32
  %34 = load ptr, ptr %33, align 8, !tbaa !13
  %.not.us.us = icmp eq ptr %34, null
  br i1 %.not.us.us, label %35, label %.lr.ph.us.us

35:                                               ; preds = %.lr.ph75.split.us.split.us
  %36 = trunc nsw i64 %32 to i32
  %37 = tail call ptr @ff_slice_buffer_load_line(ptr noundef nonnull %8, i32 noundef %36) #10
  br label %.lr.ph.us.us

.lr.ph.us.us:                                     ; preds = %35, %.lr.ph75.split.us.split.us
  %38 = phi ptr [ %37, %35 ], [ %34, %.lr.ph75.split.us.split.us ]
  %39 = mul nsw i64 %indvars.iv98, %25
  %40 = load ptr, ptr %18, align 8, !tbaa !14
  %41 = load ptr, ptr %19, align 8, !tbaa !14
  %42 = load ptr, ptr %20, align 8, !tbaa !14
  %43 = load ptr, ptr %2, align 8, !tbaa !14
  %invariant.gep105 = getelementptr i16, ptr %38, i64 %22
  br label %44

44:                                               ; preds = %44, %.lr.ph.us.us
  %indvars.iv93 = phi i64 [ %indvars.iv.next94, %44 ], [ 0, %.lr.ph.us.us ]
  %45 = getelementptr inbounds nuw i8, ptr %27, i64 %indvars.iv93
  %46 = load i8, ptr %45, align 1, !tbaa !16
  %47 = zext i8 %46 to i32
  %48 = add nsw i64 %indvars.iv93, %39
  %49 = getelementptr inbounds i8, ptr %40, i64 %48
  %50 = load i8, ptr %49, align 1, !tbaa !16
  %51 = zext i8 %50 to i32
  %52 = mul nuw nsw i32 %51, %47
  %53 = getelementptr inbounds nuw i8, ptr %28, i64 %indvars.iv93
  %54 = load i8, ptr %53, align 1, !tbaa !16
  %55 = zext i8 %54 to i32
  %56 = getelementptr inbounds i8, ptr %41, i64 %48
  %57 = load i8, ptr %56, align 1, !tbaa !16
  %58 = zext i8 %57 to i32
  %59 = mul nuw nsw i32 %58, %55
  %60 = add nuw nsw i32 %59, %52
  %61 = getelementptr inbounds nuw i8, ptr %29, i64 %indvars.iv93
  %62 = load i8, ptr %61, align 1, !tbaa !16
  %63 = zext i8 %62 to i32
  %64 = getelementptr inbounds i8, ptr %42, i64 %48
  %65 = load i8, ptr %64, align 1, !tbaa !16
  %66 = zext i8 %65 to i32
  %67 = mul nuw nsw i32 %66, %63
  %68 = add nuw nsw i32 %60, %67
  %69 = getelementptr inbounds nuw i8, ptr %30, i64 %indvars.iv93
  %70 = load i8, ptr %69, align 1, !tbaa !16
  %71 = zext i8 %70 to i32
  %72 = getelementptr inbounds i8, ptr %43, i64 %48
  %73 = load i8, ptr %72, align 1, !tbaa !16
  %74 = zext i8 %73 to i32
  %75 = mul nuw nsw i32 %74, %71
  %76 = add nuw nsw i32 %68, %75
  %77 = lshr i32 %76, 4
  %gep106 = getelementptr i16, ptr %invariant.gep105, i64 %indvars.iv93
  %78 = load i16, ptr %gep106, align 2, !tbaa !17
  %79 = trunc nuw nsw i32 %77 to i16
  %80 = sub i16 %78, %79
  store i16 %80, ptr %gep106, align 2, !tbaa !17
  %indvars.iv.next94 = add nuw nsw i64 %indvars.iv93, 1
  %exitcond97.not = icmp eq i64 %indvars.iv.next94, %wide.trip.count96
  br i1 %exitcond97.not, label %._crit_edge.split.us.us.us, label %44, !llvm.loop !19

._crit_edge.split.us.us.us:                       ; preds = %44
  %indvars.iv.next99 = add nuw nsw i64 %indvars.iv98, 1
  %exitcond102.not = icmp eq i64 %indvars.iv.next99, %wide.trip.count101
  br i1 %exitcond102.not, label %._crit_edge76, label %.lr.ph75.split.us.split.us, !llvm.loop !21

.lr.ph75.split.us.split:                          ; preds = %.lr.ph75.split.us, %._crit_edge.split.us78
  %indvars.iv88 = phi i64 [ %indvars.iv.next89, %._crit_edge.split.us78 ], [ 0, %.lr.ph75.split.us ]
  %81 = mul nsw i64 %indvars.iv88, %23
  %82 = getelementptr inbounds i8, ptr %0, i64 %81
  %83 = getelementptr inbounds i8, ptr %82, i64 %14
  %84 = getelementptr inbounds i8, ptr %82, i64 %16
  %85 = getelementptr inbounds i8, ptr %84, i64 %14
  %86 = load ptr, ptr %8, align 8, !tbaa !4
  %87 = add nsw i64 %indvars.iv88, %24
  %88 = getelementptr inbounds ptr, ptr %86, i64 %87
  %89 = load ptr, ptr %88, align 8, !tbaa !13
  %.not.us = icmp eq ptr %89, null
  br i1 %.not.us, label %90, label %.lr.ph.us

90:                                               ; preds = %.lr.ph75.split.us.split
  %91 = trunc nsw i64 %87 to i32
  %92 = tail call ptr @ff_slice_buffer_load_line(ptr noundef nonnull %8, i32 noundef %91) #10
  br label %.lr.ph.us

.lr.ph.us:                                        ; preds = %90, %.lr.ph75.split.us.split
  %93 = phi ptr [ %92, %90 ], [ %89, %.lr.ph75.split.us.split ]
  %94 = mul nsw i64 %indvars.iv88, %25
  %invariant.gep = getelementptr i16, ptr %93, i64 %22
  br label %95

95:                                               ; preds = %.lr.ph.us, %95
  %indvars.iv83 = phi i64 [ 0, %.lr.ph.us ], [ %indvars.iv.next84, %95 ]
  %96 = getelementptr inbounds nuw i8, ptr %82, i64 %indvars.iv83
  %97 = load i8, ptr %96, align 1, !tbaa !16
  %98 = zext i8 %97 to i32
  %99 = load ptr, ptr %18, align 8, !tbaa !14
  %100 = add nsw i64 %indvars.iv83, %94
  %101 = getelementptr inbounds i8, ptr %99, i64 %100
  %102 = load i8, ptr %101, align 1, !tbaa !16
  %103 = zext i8 %102 to i32
  %104 = mul nuw nsw i32 %103, %98
  %105 = getelementptr inbounds nuw i8, ptr %83, i64 %indvars.iv83
  %106 = load i8, ptr %105, align 1, !tbaa !16
  %107 = zext i8 %106 to i32
  %108 = load ptr, ptr %19, align 8, !tbaa !14
  %109 = getelementptr inbounds i8, ptr %108, i64 %100
  %110 = load i8, ptr %109, align 1, !tbaa !16
  %111 = zext i8 %110 to i32
  %112 = mul nuw nsw i32 %111, %107
  %113 = add nuw nsw i32 %112, %104
  %114 = getelementptr inbounds nuw i8, ptr %84, i64 %indvars.iv83
  %115 = load i8, ptr %114, align 1, !tbaa !16
  %116 = zext i8 %115 to i32
  %117 = load ptr, ptr %20, align 8, !tbaa !14
  %118 = getelementptr inbounds i8, ptr %117, i64 %100
  %119 = load i8, ptr %118, align 1, !tbaa !16
  %120 = zext i8 %119 to i32
  %121 = mul nuw nsw i32 %120, %116
  %122 = add nuw nsw i32 %113, %121
  %123 = getelementptr inbounds nuw i8, ptr %85, i64 %indvars.iv83
  %124 = load i8, ptr %123, align 1, !tbaa !16
  %125 = zext i8 %124 to i32
  %126 = load ptr, ptr %2, align 8, !tbaa !14
  %127 = getelementptr inbounds i8, ptr %126, i64 %100
  %128 = load i8, ptr %127, align 1, !tbaa !16
  %129 = zext i8 %128 to i32
  %130 = mul nuw nsw i32 %129, %125
  %131 = add nuw nsw i32 %122, %130
  %132 = lshr i32 %131, 4
  %gep = getelementptr i16, ptr %invariant.gep, i64 %indvars.iv83
  %133 = load i16, ptr %gep, align 2, !tbaa !17
  %134 = sext i16 %133 to i32
  %135 = add nsw i32 %132, %134
  %136 = add nsw i32 %135, 8
  %137 = ashr i32 %136, 4
  %.not71.us = icmp ult i32 %137, 256
  %isnotneg.us = icmp sgt i32 %135, -9
  %138 = sext i1 %isnotneg.us to i32
  %.0.us = select i1 %.not71.us, i32 %137, i32 %138
  %139 = trunc i32 %.0.us to i8
  %140 = getelementptr inbounds i8, ptr %10, i64 %100
  store i8 %139, ptr %140, align 1, !tbaa !16
  %indvars.iv.next84 = add nuw nsw i64 %indvars.iv83, 1
  %exitcond87.not = icmp eq i64 %indvars.iv.next84, %wide.trip.count96
  br i1 %exitcond87.not, label %._crit_edge.split.us78, label %95, !llvm.loop !19

._crit_edge.split.us78:                           ; preds = %95
  %indvars.iv.next89 = add nuw nsw i64 %indvars.iv88, 1
  %exitcond92.not = icmp eq i64 %indvars.iv.next89, %wide.trip.count101
  br i1 %exitcond92.not, label %._crit_edge76, label %.lr.ph75.split.us.split, !llvm.loop !21

.lr.ph75.split:                                   ; preds = %.lr.ph75.split.preheader, %148
  %indvars.iv = phi i64 [ 0, %.lr.ph75.split.preheader ], [ %indvars.iv.next, %148 ]
  %141 = load ptr, ptr %8, align 8, !tbaa !4
  %142 = add nsw i64 %indvars.iv, %21
  %143 = getelementptr inbounds ptr, ptr %141, i64 %142
  %144 = load ptr, ptr %143, align 8, !tbaa !13
  %.not = icmp eq ptr %144, null
  br i1 %.not, label %145, label %148

145:                                              ; preds = %.lr.ph75.split
  %146 = trunc nsw i64 %142 to i32
  %147 = tail call ptr @ff_slice_buffer_load_line(ptr noundef nonnull %8, i32 noundef %146) #10
  br label %148

148:                                              ; preds = %.lr.ph75.split, %145
  %indvars.iv.next = add nuw nsw i64 %indvars.iv, 1
  %exitcond.not = icmp eq i64 %indvars.iv.next, %wide.trip.count
  br i1 %exitcond.not, label %._crit_edge76, label %.lr.ph75.split, !llvm.loop !21

._crit_edge76:                                    ; preds = %148, %._crit_edge.split.us78, %._crit_edge.split.us.us.us, %11
  ret void
}